target datalayout = "e-m:e-p270:32:32-p271:32:32-p272:64:64-i64:64-i128:128-f80:128-n8:16:32:64-S128"
target triple = "x86_64-pc-linux-gnu"

%struct.aiString = type { i32, [1024 x i8] }
%class.aiMatrix4x4t = type { float, float, float, float, float, float, float, float, float, float, float, float, float, float, float, float }
%struct.aiBone = type { %struct.aiString, i32, ptr, ptr, ptr, %class.aiMatrix4x4t }
%struct.aiVertexWeight = type { i32, float }

; Function Attrs: mustprogress nounwind uwtable
define linkonce_odr hidden void @_ZN14aiVertexWeightC2Ev(ptr noundef nonnull align 4 dereferenceable(8) %0) unnamed_addr #4 comdat align 2 {
  %2 = alloca ptr, align 8
  store ptr %0, ptr %2, align 8
  %3 = load ptr, ptr %2, align 8
  %4 = getelementptr inbounds nuw %struct.aiVertexWeight, ptr %3, i32 0, i32 0
  store i32 0, ptr %4, align 4
  %5 = getelementptr inbounds nuw %struct.aiVertexWeight, ptr %3, i32 0, i32 1
  store float 0.000000e+00, ptr %5, align 4
  ret void
}

; Function Attrs: mustprogress uwtable
define linkonce_odr hidden void @_ZN6aiBone17copyVertexWeightsERKS_(ptr noundef nonnull align 8 dereferenceable(1120) %0, ptr noundef nonnull align 8 dereferenceable(1120) %1) #0 comdat align 2 {
  %3 = alloca ptr, align 8
  %4 = alloca ptr, align 8
  store ptr %0, ptr %3, align 8
  store ptr %1, ptr %4, align 8
  %5 = load ptr, ptr %3, align 8
  %6 = load ptr, ptr %4, align 8
  %7 = getelementptr inbounds nuw %struct.aiBone, ptr %6, i32 0, i32 4
  %8 = load ptr, ptr %7, align 8
  %9 = icmp eq ptr %8, null
  br i1 %9, label %15, label %10

10:                                               ; preds = %2
  %11 = load ptr, ptr %4, align 8
  %12 = getelementptr inbounds nuw %struct.aiBone, ptr %11, i32 0, i32 1
  %13 = load i32, ptr %12, align 4
  %14 = icmp eq i32 %13, 0
  br i1 %14, label %15, label %18

15:                                               ; preds = %10, %2
  %16 = getelementptr inbounds nuw %struct.aiBone, ptr %5, i32 0, i32 4
  store ptr null, ptr %16, align 8
  %17 = getelementptr inbounds nuw %struct.aiBone, ptr %5, i32 0, i32 1
  store i32 0, ptr %17, align 4
  br label %59

18:                                               ; preds = %10
  %19 = load ptr, ptr %4, align 8
  %20 = getelementptr inbounds nuw %struct.aiBone, ptr %19, i32 0, i32 1
  %21 = load i32, ptr %20, align 4
  %22 = getelementptr inbounds nuw %struct.aiBone, ptr %5, i32 0, i32 1
  store i32 %21, ptr %22, align 4
  %23 = getelementptr inbounds nuw %struct.aiBone, ptr %5, i32 0, i32 4
  %24 = load ptr, ptr %23, align 8
  %25 = icmp ne ptr %24, null
  br i1 %25, label %26, label %32

26:                                               ; preds = %18
  %27 = getelementptr inbounds nuw %struct.aiBone, ptr %5, i32 0, i32 4
  %28 = load ptr, ptr %27, align 8
  %29 = icmp eq ptr %28, null
  br i1 %29, label %31, label %30

30:                                               ; preds = %26
  call void @_ZdaPv(ptr noundef %28) #20
  br label %31

31:                                               ; preds = %30, %26
  br label %32

32:                                               ; preds = %31, %18
  %33 = getelementptr inbounds nuw %struct.aiBone, ptr %5, i32 0, i32 1
  %34 = load i32, ptr %33, align 4
  %35 = zext i32 %34 to i64
  %36 = call { i64, i1 } @llvm.umul.with.overflow.i64(i64 %35, i64 8)
  %37 = extractvalue { i64, i1 } %36, 1
  %38 = extractvalue { i64, i1 } %36, 0
  %39 = select i1 %37, i64 -1, i64 %38
  %40 = call noalias noundef nonnull ptr @_Znam(i64 noundef %39) #19
  %41 = icmp eq i64 %35, 0
  br i1 %41, label %48, label %42

42:                                               ; preds = %32
  %43 = getelementptr inbounds %struct.aiVertexWeight, ptr %40, i64 %35
  br label %44

44:                                               ; preds = %44, %42
  %45 = phi ptr [ %40, %42 ], [ %46, %44 ]
  call void @_ZN14aiVertexWeightC2Ev(ptr noundef nonnull align 4 dereferenceable(8) %45) #17
  %46 = getelementptr inbounds %struct.aiVertexWeight, ptr %45, i64 1
  %47 = icmp eq ptr %46, %43
  br i1 %47, label %48, label %44

48:                                               ; preds = %32, %44
  %49 = getelementptr inbounds nuw %struct.aiBone, ptr %5, i32 0, i32 4
  store ptr %40, ptr %49, align 8
  %50 = getelementptr inbounds nuw %struct.aiBone, ptr %5, i32 0, i32 4
  %51 = load ptr, ptr %50, align 8
  %52 = load ptr, ptr %4, align 8
  %53 = getelementptr inbounds nuw %struct.aiBone, ptr %52, i32 0, i32 4
  %54 = load ptr, ptr %53, align 8
  %55 = getelementptr inbounds nuw %struct.aiBone, ptr %5, i32 0, i32 1
  %56 = load i32, ptr %55, align 4
  %57 = zext i32 %56 to i64
  %58 = mul i64 %57, 8
  call void @llvm.memcpy.p0.p0.i64(ptr align 4 %51, ptr align 4 %54, i64 %58, i1 false)
  br label %59

59:                                               ; preds = %48, %15
  ret void
}

; Function Attrs: mustprogress nounwind uwtable
define linkonce_odr hidden noundef nonnull align 4 dereferenceable(1028) ptr @_ZN8aiStringaSERKS_(ptr noundef nonnull align 4 dereferenceable(1028) %0, ptr noundef nonnull align 4 dereferenceable(1028) %1) #4 comdat align 2 {
  %3 = alloca ptr, align 8
  %4 = alloca ptr, align 8
  %5 = alloca ptr, align 8
  store ptr %0, ptr %4, align 8
  store ptr %1, ptr %5, align 8
  %6 = load ptr, ptr %4, align 8
  %7 = load ptr, ptr %5, align 8
  %8 = icmp eq ptr %6, %7
  br i1 %8, label %9, label %10

9:                                                ; preds = %2
  store ptr %6, ptr %3, align 8
  br label %35

10:                                               ; preds = %2
  %11 = load ptr, ptr %5, align 8
  %12 = getelementptr inbounds nuw %struct.aiString, ptr %11, i32 0, i32 0
  %13 = load i32, ptr %12, align 4
  %14 = getelementptr inbounds nuw %struct.aiString, ptr %6, i32 0, i32 0
  store i32 %13, ptr %14, align 4
  %15 = getelementptr inbounds nuw %struct.aiString, ptr %6, i32 0, i32 0
  %16 = load i32, ptr %15, align 4
  %17 = zext i32 %16 to i64
  %18 = icmp ugt i64 %17, 1023
  br i1 %18, label %19, label %21

19:                                               ; preds = %10
  %20 = getelementptr inbounds nuw %struct.aiString, ptr %6, i32 0, i32 0
  store i32 1023, ptr %20, align 4
  br label %21

21:                                               ; preds = %19, %10
  %22 = getelementptr inbounds nuw %struct.aiString, ptr %6, i32 0, i32 1
  %23 = getelementptr inbounds [1024 x i8], ptr %22, i64 0, i64 0
  %24 = load ptr, ptr %5, align 8
  %25 = getelementptr inbounds nuw %struct.aiString, ptr %24, i32 0, i32 1
  %26 = getelementptr inbounds [1024 x i8], ptr %25, i64 0, i64 0
  %27 = getelementptr inbounds nuw %struct.aiString, ptr %6, i32 0, i32 0
  %28 = load i32, ptr %27, align 4
  %29 = zext i32 %28 to i64
  call void @llvm.memcpy.p0.p0.i64(ptr align 4 %23, ptr align 4 %26, i64 %29, i1 false)
  %30 = getelementptr inbounds nuw %struct.aiString, ptr %6, i32 0, i32 1
  %31 = getelementptr inbounds nuw %struct.aiString, ptr %6, i32 0, i32 0
  %32 = load i32, ptr %31, align 4
  %33 = zext i32 %32 to i64
  %34 = getelementptr inbounds nuw [1024 x i8], ptr %30, i64 0, i64 %33
  store i8 0, ptr %34, align 1
  store ptr %6, ptr %3, align 8
  br label %35

35:                                               ; preds = %21, %9
  %36 = load ptr, ptr %3, align 8
  ret ptr %36
}

; Function Attrs: mustprogress nounwind uwtable
define linkonce_odr hidden void @_ZN12aiMatrix4x4tIfEC2Ev(ptr noundef nonnull align 4 dereferenceable(64) %0) unnamed_addr #4 comdat align 2 {
  %2 = alloca ptr, align 8
  store ptr %0, ptr %2, align 8
  %3 = load ptr, ptr %2, align 8
  %4 = getelementptr inbounds nuw %class.aiMatrix4x4t, ptr %3, i32 0, i32 0
  store float 1.000000e+00, ptr %4, align 4
  %5 = getelementptr inbounds nuw %class.aiMatrix4x4t, ptr %3, i32 0, i32 1
  store float 0.000000e+00, ptr %5, align 4
  %6 = getelementptr inbounds nuw %class.aiMatrix4x4t, ptr %3, i32 0, i32 2
  store float 0.000000e+00, ptr %6, align 4
  %7 = getelementptr inbounds nuw %class.aiMatrix4x4t, ptr %3, i32 0, i32 3
  store float 0.000000e+00, ptr %7, align 4
  %8 = getelementptr inbounds nuw %class.aiMatrix4x4t, ptr %3, i32 0, i32 4
  store float 0.000000e+00, ptr %8, align 4
  %9 = getelementptr inbounds nuw %class.aiMatrix4x4t, ptr %3, i32 0, i32 5
  store float 1.000000e+00, ptr %9, align 4
  %10 = getelementptr inbounds nuw %class.aiMatrix4x4t, ptr %3, i32 0, i32 6
  store float 0.000000e+00, ptr %10, align 4
  %11 = getelementptr inbounds nuw %class.aiMatrix4x4t, ptr %3, i32 0, i32 7
  store float 0.000000e+00, ptr %11, align 4
  %12 = getelementptr inbounds nuw %class.aiMatrix4x4t, ptr %3, i32 0, i32 8
  store float 0.000000e+00, ptr %12, align 4
  %13 = getelementptr inbounds nuw %class.aiMatrix4x4t, ptr %3, i32 0, i32 9
  store float 0.000000e+00, ptr %13, align 4
  %14 = getelementptr inbounds nuw %class.aiMatrix4x4t, ptr %3, i32 0, i32 10
  store float 1.000000e+00, ptr %14, align 4
  %15 = getelementptr inbounds nuw %class.aiMatrix4x4t, ptr %3, i32 0, i32 11
  store float 0.000000e+00, ptr %15, align 4
  %16 = getelementptr inbounds nuw %class.aiMatrix4x4t, ptr %3, i32 0, i32 12
  store float 0.000000e+00, ptr %16, align 4
  %17 = getelementptr inbounds nuw %class.aiMatrix4x4t, ptr %3, i32 0, i32 13
  store float 0.000000e+00, ptr %17, align 4
  %18 = getelementptr inbounds nuw %class.aiMatrix4x4t, ptr %3, i32 0, i32 14
  store float 0.000000e+00, ptr %18, align 4
  %19 = getelementptr inbounds nuw %class.aiMatrix4x4t, ptr %3, i32 0, i32 15
  store float 1.000000e+00, ptr %19, align 4
  ret void
}

; Function Attrs: mustprogress nounwind uwtable
define linkonce_odr hidden void @_ZN8aiStringC2Ev(ptr noundef nonnull align 4 dereferenceable(1028) %0) unnamed_addr #4 comdat align 2 {
  %2 = alloca ptr, align 8
  store ptr %0, ptr %2, align 8
  %3 = load ptr, ptr %2, align 8
  %4 = getelementptr inbounds nuw %struct.aiString, ptr %3, i32 0, i32 0
  store i32 0, ptr %4, align 4
  %5 = getelementptr inbounds nuw %struct.aiString, ptr %3, i32 0, i32 1
  call void @llvm.memset.p0.i64(ptr align 4 %5, i8 0, i64 1024, i1 false)
  ret void
}

; Function Attrs: mustprogress uwtable
define linkonce_odr hidden noundef nonnull align 8 dereferenceable(1120) ptr @_ZN6aiBoneaSERKS_(ptr noundef nonnull align 8 dereferenceable(1120) %0, ptr noundef nonnull align 8 dereferenceable(1120) %1) #0 comdat align 2 {
  %3 = alloca ptr, align 8
  %4 = alloca ptr, align 8
  %5 = alloca ptr, align 8
  store ptr %0, ptr %4, align 8
  store ptr %1, ptr %5, align 8
  %6 = load ptr, ptr %4, align 8
  %7 = load ptr, ptr %5, align 8
  %8 = icmp eq ptr %6, %7
  br i1 %8, label %9, label %10

9:                                                ; preds = %2
  store ptr %6, ptr %3, align 8
  br label %23

10:                                               ; preds = %2
  %11 = load ptr, ptr %5, align 8
  %12 = getelementptr inbounds nuw %struct.aiBone, ptr %11, i32 0, i32 0
  %13 = getelementptr inbounds nuw %struct.aiBone, ptr %6, i32 0, i32 0
  %14 = call noundef nonnull align 4 dereferenceable(1028) ptr @_ZN8aiStringaSERKS_(ptr noundef nonnull align 4 dereferenceable(1028) %13, ptr noundef nonnull align 4 dereferenceable(1028) %12)
  %15 = load ptr, ptr %5, align 8
  %16 = getelementptr inbounds nuw %struct.aiBone, ptr %15, i32 0, i32 1
  %17 = load i32, ptr %16, align 4
  %18 = getelementptr inbounds nuw %struct.aiBone, ptr %6, i32 0, i32 1
  store i32 %17, ptr %18, align 4
  %19 = load ptr, ptr %5, align 8
  %20 = getelementptr inbounds nuw %struct.aiBone, ptr %19, i32 0, i32 5
  %21 = getelementptr inbounds nuw %struct.aiBone, ptr %6, i32 0, i32 5
  call void @llvm.memcpy.p0.p0.i64(ptr align 8 %21, ptr align 8 %20, i64 64, i1 false)
  %22 = load ptr, ptr %5, align 8
  call void @_ZN6aiBone17copyVertexWeightsERKS_(ptr noundef nonnull align 8 dereferenceable(1120) %6, ptr noundef nonnull align 8 dereferenceable(1120) %22)
  store ptr %6, ptr %3, align 8
  br label %23

23:                                               ; preds = %10, %9
  %24 = load ptr, ptr %3, align 8
  ret ptr %24
}

; Function Attrs: mustprogress nounwind uwtable
define linkonce_odr hidden void @_ZN6aiBoneC2Ev(ptr noundef nonnull align 8 dereferenceable(1120) %0) unnamed_addr #4 comdat align 2 {
  %2 = alloca ptr, align 8
  store ptr %0, ptr %2, align 8
  %3 = load ptr, ptr %2, align 8
  %4 = getelementptr inbounds nuw %struct.aiBone, ptr %3, i32 0, i32 0
  call void @_ZN8aiStringC2Ev(ptr noundef nonnull align 4 dereferenceable(1028) %4) #17
  %5 = getelementptr inbounds nuw %struct.aiBone, ptr %3, i32 0, i32 1
  store i32 0, ptr %5, align 4
  %6 = getelementptr inbounds nuw %struct.aiBone, ptr %3, i32 0, i32 2
  store ptr null, ptr %6, align 8
  %7 = getelementptr inbounds nuw %struct.aiBone, ptr %3, i32 0, i32 3
  store ptr null, ptr %7, align 8
  %8 = getelementptr inbounds nuw %struct.aiBone, ptr %3, i32 0, i32 4
  store ptr null, ptr %8, align 8
  %9 = getelementptr inbounds nuw %struct.aiBone, ptr %3, i32 0, i32 5
  call void @_ZN12aiMatrix4x4tIfEC2Ev(ptr noundef nonnull align 4 dereferenceable(64) %9) #17
  ret void
}

; Function Attrs: mustprogress uwtable
define void @_ZN6Assimp13SceneCombiner4CopyEPP6aiBonePKS1_(ptr noundef %0, ptr noundef %1) #0 align 2 {
  %3 = alloca ptr, align 8
  %4 = alloca ptr, align 8
  %5 = alloca ptr, align 8
  store ptr %0, ptr %3, align 8
  store ptr %1, ptr %4, align 8
  %6 = load ptr, ptr %3, align 8
  %7 = icmp eq ptr null, %6
  br i1 %7, label %11, label %8

8:                                                ; preds = %2
  %9 = load ptr, ptr %4, align 8
  %10 = icmp eq ptr null, %9
  br i1 %10, label %11, label %12

11:                                               ; preds = %8, %2
  br label %18

12:                                               ; preds = %8
  call void @llvm.lifetime.start.p0(i64 8, ptr %5) #17
  %13 = call noalias noundef nonnull ptr @_Znwm(i64 noundef 1120) #19
  call void @_ZN6aiBoneC2Ev(ptr noundef nonnull align 8 dereferenceable(1120) %13) #17
  %14 = load ptr, ptr %3, align 8
  store ptr %13, ptr %14, align 8
  store ptr %13, ptr %5, align 8
  %15 = load ptr, ptr %4, align 8
  %16 = load ptr, ptr %5, align 8
  %17 = call noundef nonnull align 8 dereferenceable(1120) ptr @_ZN6aiBoneaSERKS_(ptr noundef nonnull align 8 dereferenceable(1120) %16, ptr noundef nonnull align 8 dereferenceable(1120) %15)
  call void @llvm.lifetime.end.p0(i64 8, ptr %5) #17
  br label %18

18:                                               ; preds = %12, %11
  ret void
}