; Function Attrs: mustprogress uwtable
define void @_ZN6Assimp13SceneCombiner4CopyEPP6aiBonePKS1_(ptr noundef writeonly captures(address_is_null) %0, ptr noundef readonly captures(address) %1) local_unnamed_addr #0 align 2 {
  %3 = icmp eq ptr %0, null
  %4 = icmp eq ptr %1, null
  %or.cond = or i1 %3, %4
  br i1 %or.cond, label %_ZN6aiBoneaSERKS_.exit, label %5

5:                                                ; preds = %2
  %6 = tail call noalias noundef nonnull dereferenceable(1120) ptr @_Znwm(i64 noundef 1120) #22
  %7 = getelementptr inbounds nuw i8, ptr %6, i64 1056
  tail call void @llvm.memset.p0.i64(ptr noundef nonnull align 8 dereferenceable(1120) %6, i8 0, i64 1056, i1 false)
  store float 1.000000e+00, ptr %7, align 4
  %8 = getelementptr inbounds nuw i8, ptr %6, i64 1060
  %9 = getelementptr inbounds nuw i8, ptr %6, i64 1076
  tail call void @llvm.memset.p0.i64(ptr noundef nonnull align 4 dereferenceable(16) %8, i8 0, i64 16, i1 false)
  store float 1.000000e+00, ptr %9, align 4
  %10 = getelementptr inbounds nuw i8, ptr %6, i64 1080
  %11 = getelementptr inbounds nuw i8, ptr %6, i64 1096
  tail call void @llvm.memset.p0.i64(ptr noundef nonnull align 8 dereferenceable(16) %10, i8 0, i64 16, i1 false)
  store float 1.000000e+00, ptr %11, align 4
  %12 = getelementptr inbounds nuw i8, ptr %6, i64 1100
  %13 = getelementptr inbounds nuw i8, ptr %6, i64 1116
  tail call void @llvm.memset.p0.i64(ptr noundef nonnull align 4 dereferenceable(16) %12, i8 0, i64 16, i1 false)
  store float 1.000000e+00, ptr %13, align 4
  store ptr %6, ptr %0, align 8
  %14 = icmp eq ptr %6, %1
  br i1 %14, label %_ZN6aiBoneaSERKS_.exit, label %_ZN8aiStringaSERKS_.exit.i

_ZN8aiStringaSERKS_.exit.i:                       ; preds = %5
  %15 = load i32, ptr %1, align 4
  %spec.select.i.i = tail call i32 @llvm.umin.i32(i32 %15, i32 1023)
  store i32 %spec.select.i.i, ptr %6, align 4
  %16 = getelementptr inbounds nuw i8, ptr %6, i64 4
  %17 = getelementptr inbounds nuw i8, ptr %1, i64 4
  %18 = zext nneg i32 %spec.select.i.i to i64
  tail call void @llvm.memcpy.p0.p0.i64(ptr nonnull align 4 %16, ptr nonnull align 4 %17, i64 %18, i1 false)
  %19 = getelementptr inbounds nuw [1024 x i8], ptr %16, i64 0, i64 %18
  store i8 0, ptr %19, align 1
  %20 = getelementptr inbounds nuw i8, ptr %1, i64 1028
  %21 = load i32, ptr %20, align 4
  %22 = getelementptr inbounds nuw i8, ptr %6, i64 1028
  %23 = getelementptr inbounds nuw i8, ptr %1, i64 1056
  tail call void @llvm.memcpy.p0.p0.i64(ptr noundef nonnull align 8 dereferenceable(64) %7, ptr noundef nonnull align 8 dereferenceable(64) %23, i64 64, i1 false)
  %24 = getelementptr inbounds nuw i8, ptr %1, i64 1048
  %25 = load ptr, ptr %24, align 8
  %26 = icmp eq ptr %25, null
  %27 = icmp eq i32 %21, 0
  %or.cond7 = select i1 %26, i1 true, i1 %27
  br i1 %or.cond7, label %28, label %30

28:                                               ; preds = %_ZN8aiStringaSERKS_.exit.i
  %29 = getelementptr inbounds nuw i8, ptr %6, i64 1048
  store ptr null, ptr %29, align 8
  store i32 0, ptr %22, align 4
  br label %_ZN6aiBoneaSERKS_.exit

30:                                               ; preds = %_ZN8aiStringaSERKS_.exit.i
  store i32 %21, ptr %22, align 4
  %31 = getelementptr inbounds nuw i8, ptr %6, i64 1048
  %32 = load ptr, ptr %31, align 8
  %.not.i.i = icmp eq ptr %32, null
  br i1 %.not.i.i, label %.thread.i.i, label %36

.thread.i.i:                                      ; preds = %30
  %33 = zext i32 %21 to i64
  %34 = shl nuw nsw i64 %33, 3
  %35 = tail call noalias noundef nonnull ptr @_Znam(i64 noundef %34) #22
  br label %.loopexit.loopexit.i.i

36:                                               ; preds = %30
  tail call void @_ZdaPv(ptr noundef nonnull %32) #24
  %.pr.i.i = load i32, ptr %22, align 4
  %37 = zext i32 %.pr.i.i to i64
  %38 = shl nuw nsw i64 %37, 3
  %39 = tail call noalias noundef nonnull ptr @_Znam(i64 noundef %38) #22
  %40 = icmp eq i32 %.pr.i.i, 0
  br i1 %40, label %.loopexit.i.i, label %.loopexit.loopexit.i.i

.loopexit.loopexit.i.i:                           ; preds = %36, %.thread.i.i
  %41 = phi ptr [ %35, %.thread.i.i ], [ %39, %36 ]
  %42 = phi i64 [ %34, %.thread.i.i ], [ %38, %36 ]
  tail call void @llvm.memset.p0.i64(ptr nonnull align 4 %41, i8 0, i64 %42, i1 false)
  br label %.loopexit.i.i

.loopexit.i.i:                                    ; preds = %.loopexit.loopexit.i.i, %36
  %43 = phi ptr [ %39, %36 ], [ %41, %.loopexit.loopexit.i.i ]
  %44 = phi i64 [ %38, %36 ], [ %42, %.loopexit.loopexit.i.i ]
  store ptr %43, ptr %31, align 8
  %45 = load ptr, ptr %24, align 8
  tail call void @llvm.memcpy.p0.p0.i64(ptr nonnull align 4 %43, ptr align 4 %45, i64 %44, i1 false)
  br label %_ZN6aiBoneaSERKS_.exit

_ZN6aiBoneaSERKS_.exit:                           ; preds = %.loopexit.i.i, %28, %5, %2
  ret void
}